target datalayout = "e-m:e-p270:32:32-p271:32:32-p272:64:64-i64:64-i128:128-f80:128-n8:16:32:64-S128"
target triple = "x86_64-pc-linux-gnu"

%struct.ec_method_st = type { ptr, ptr, ptr, ptr, ptr, ptr, ptr, ptr, ptr, ptr, ptr }
%struct.ec_group_st = type { ptr, ptr, %struct.bignum_st, %struct.bignum_st, i32, ptr, %struct.bignum_st, %struct.bignum_st, %struct.bignum_st, i32, ptr, %struct.bignum_st }
%struct.bignum_st = type { ptr, i32, i32, i32, i32 }
%struct.ec_point_st = type { ptr, %struct.bignum_st, %struct.bignum_st, %struct.bignum_st }

@.str = private unnamed_addr constant [118 x i8] c"generated/home/dtcxzyw/WorkSpace/Projects/compilers/llvm-opt-benchmark/bench/libquic/libquic/boringssl/crypto/ec/ec.c\00", align 1

; Function Attrs: nounwind uwtable
define hidden void @EC_POINT_clear_free(ptr noundef %0) #1 {
  %2 = alloca ptr, align 8
  store ptr %0, ptr %2, align 8, !tbaa !29
  %3 = load ptr, ptr %2, align 8, !tbaa !29
  %4 = icmp ne ptr %3, null
  br i1 %4, label %6, label %5

5:                                                ; preds = %1
  br label %10

6:                                                ; preds = %1
  %7 = load ptr, ptr %2, align 8, !tbaa !29
  call void @ec_GFp_simple_point_clear_finish(ptr noundef %7)
  %8 = load ptr, ptr %2, align 8, !tbaa !29
  call void @OPENSSL_cleanse(ptr noundef %8, i64 noundef 80)
  %9 = load ptr, ptr %2, align 8, !tbaa !29
  call void @free(ptr noundef %9) #7
  br label %10

10:                                               ; preds = %6, %5
  ret void
}

; Function Attrs: nounwind uwtable
define hidden i32 @EC_POINT_copy(ptr noundef %0, ptr noundef %1) #1 {
  %3 = alloca i32, align 4
  %4 = alloca ptr, align 8
  %5 = alloca ptr, align 8
  store ptr %0, ptr %4, align 8, !tbaa !29
  store ptr %1, ptr %5, align 8, !tbaa !29
  %6 = load ptr, ptr %4, align 8, !tbaa !29
  %7 = getelementptr inbounds nuw %struct.ec_point_st, ptr %6, i32 0, i32 0
  %8 = load ptr, ptr %7, align 8, !tbaa !31
  %9 = load ptr, ptr %5, align 8, !tbaa !29
  %10 = getelementptr inbounds nuw %struct.ec_point_st, ptr %9, i32 0, i32 0
  %11 = load ptr, ptr %10, align 8, !tbaa !31
  %12 = icmp ne ptr %8, %11
  br i1 %12, label %13, label %14

13:                                               ; preds = %2
  call void @ERR_put_error(i32 noundef 15, i32 noundef 0, i32 noundef 106, ptr noundef @.str, i32 noundef 723)
  store i32 0, ptr %3, align 4
  br label %23

14:                                               ; preds = %2
  %15 = load ptr, ptr %4, align 8, !tbaa !29
  %16 = load ptr, ptr %5, align 8, !tbaa !29
  %17 = icmp eq ptr %15, %16
  br i1 %17, label %18, label %19

18:                                               ; preds = %14
  store i32 1, ptr %3, align 4
  br label %23

19:                                               ; preds = %14
  %20 = load ptr, ptr %4, align 8, !tbaa !29
  %21 = load ptr, ptr %5, align 8, !tbaa !29
  %22 = call i32 @ec_GFp_simple_point_copy(ptr noundef %20, ptr noundef %21)
  store i32 %22, ptr %3, align 4
  br label %23

23:                                               ; preds = %19, %18, %13
  %24 = load i32, ptr %3, align 4
  ret i32 %24
}

; Function Attrs: nounwind uwtable
define hidden ptr @EC_POINT_new(ptr noundef %0) #1 {
  %2 = alloca ptr, align 8
  %3 = alloca ptr, align 8
  %4 = alloca ptr, align 8
  %5 = alloca i32, align 4
  store ptr %0, ptr %3, align 8, !tbaa !13
  call void @llvm.lifetime.start.p0(i64 8, ptr %4) #7
  %6 = load ptr, ptr %3, align 8, !tbaa !13
  %7 = icmp eq ptr %6, null
  br i1 %7, label %8, label %9

8:                                                ; preds = %1
  call void @ERR_put_error(i32 noundef 15, i32 noundef 0, i32 noundef 67, ptr noundef @.str, i32 noundef 680)
  store ptr null, ptr %2, align 8
  store i32 1, ptr %5, align 4
  br label %27

9:                                                ; preds = %1
  %10 = call noalias ptr @malloc(i64 noundef 80) #8
  store ptr %10, ptr %4, align 8, !tbaa !29
  %11 = load ptr, ptr %4, align 8, !tbaa !29
  %12 = icmp eq ptr %11, null
  br i1 %12, label %13, label %14

13:                                               ; preds = %9
  call void @ERR_put_error(i32 noundef 15, i32 noundef 0, i32 noundef 65, ptr noundef @.str, i32 noundef 686)
  store ptr null, ptr %2, align 8
  store i32 1, ptr %5, align 4
  br label %27

14:                                               ; preds = %9
  %15 = load ptr, ptr %3, align 8, !tbaa !13
  %16 = getelementptr inbounds nuw %struct.ec_group_st, ptr %15, i32 0, i32 0
  %17 = load ptr, ptr %16, align 8, !tbaa !15
  %18 = load ptr, ptr %4, align 8, !tbaa !29
  %19 = getelementptr inbounds nuw %struct.ec_point_st, ptr %18, i32 0, i32 0
  store ptr %17, ptr %19, align 8, !tbaa !31
  %20 = load ptr, ptr %4, align 8, !tbaa !29
  %21 = call i32 @ec_GFp_simple_point_init(ptr noundef %20)
  %22 = icmp ne i32 %21, 0
  br i1 %22, label %25, label %23

23:                                               ; preds = %14
  %24 = load ptr, ptr %4, align 8, !tbaa !29
  call void @free(ptr noundef %24) #7
  store ptr null, ptr %2, align 8
  store i32 1, ptr %5, align 4
  br label %27

25:                                               ; preds = %14
  %26 = load ptr, ptr %4, align 8, !tbaa !29
  store ptr %26, ptr %2, align 8
  store i32 1, ptr %5, align 4
  br label %27

27:                                               ; preds = %25, %23, %13, %8
  call void @llvm.lifetime.end.p0(i64 8, ptr %4) #7
  %28 = load ptr, ptr %2, align 8
  ret ptr %28
}

; Function Attrs: nounwind uwtable
define hidden i32 @ec_group_copy(ptr noundef %0, ptr noundef %1) #1 {
  %3 = alloca i32, align 4
  %4 = alloca ptr, align 8
  %5 = alloca ptr, align 8
  store ptr %0, ptr %4, align 8, !tbaa !13
  store ptr %1, ptr %5, align 8, !tbaa !13
  %6 = load ptr, ptr %4, align 8, !tbaa !13
  %7 = getelementptr inbounds nuw %struct.ec_group_st, ptr %6, i32 0, i32 0
  %8 = load ptr, ptr %7, align 8, !tbaa !15
  %9 = getelementptr inbounds nuw %struct.ec_method_st, ptr %8, i32 0, i32 2
  %10 = load ptr, ptr %9, align 8, !tbaa !51
  %11 = icmp eq ptr %10, null
  br i1 %11, label %12, label %13

12:                                               ; preds = %2
  call void @ERR_put_error(i32 noundef 15, i32 noundef 0, i32 noundef 66, ptr noundef @.str, i32 noundef 565)
  store i32 0, ptr %3, align 4
  br label %99

13:                                               ; preds = %2
  %14 = load ptr, ptr %4, align 8, !tbaa !13
  %15 = getelementptr inbounds nuw %struct.ec_group_st, ptr %14, i32 0, i32 0
  %16 = load ptr, ptr %15, align 8, !tbaa !15
  %17 = load ptr, ptr %5, align 8, !tbaa !13
  %18 = getelementptr inbounds nuw %struct.ec_group_st, ptr %17, i32 0, i32 0
  %19 = load ptr, ptr %18, align 8, !tbaa !15
  %20 = icmp ne ptr %16, %19
  br i1 %20, label %21, label %22

21:                                               ; preds = %13
  call void @ERR_put_error(i32 noundef 15, i32 noundef 0, i32 noundef 106, ptr noundef @.str, i32 noundef 569)
  store i32 0, ptr %3, align 4
  br label %99

22:                                               ; preds = %13
  %23 = load ptr, ptr %4, align 8, !tbaa !13
  %24 = load ptr, ptr %5, align 8, !tbaa !13
  %25 = icmp eq ptr %23, %24
  br i1 %25, label %26, label %27

26:                                               ; preds = %22
  store i32 1, ptr %3, align 4
  br label %99

27:                                               ; preds = %22
  %28 = load ptr, ptr %5, align 8, !tbaa !13
  %29 = getelementptr inbounds nuw %struct.ec_group_st, ptr %28, i32 0, i32 5
  %30 = load ptr, ptr %29, align 8, !tbaa !50
  %31 = load ptr, ptr %4, align 8, !tbaa !13
  %32 = getelementptr inbounds nuw %struct.ec_group_st, ptr %31, i32 0, i32 5
  store ptr %30, ptr %32, align 8, !tbaa !50
  %33 = load ptr, ptr %5, align 8, !tbaa !13
  %34 = getelementptr inbounds nuw %struct.ec_group_st, ptr %33, i32 0, i32 1
  %35 = load ptr, ptr %34, align 8, !tbaa !28
  %36 = icmp ne ptr %35, null
  br i1 %36, label %37, label %64

37:                                               ; preds = %27
  %38 = load ptr, ptr %4, align 8, !tbaa !13
  %39 = getelementptr inbounds nuw %struct.ec_group_st, ptr %38, i32 0, i32 1
  %40 = load ptr, ptr %39, align 8, !tbaa !28
  %41 = icmp eq ptr %40, null
  br i1 %41, label %42, label %53

42:                                               ; preds = %37
  %43 = load ptr, ptr %4, align 8, !tbaa !13
  %44 = call ptr @EC_POINT_new(ptr noundef %43)
  %45 = load ptr, ptr %4, align 8, !tbaa !13
  %46 = getelementptr inbounds nuw %struct.ec_group_st, ptr %45, i32 0, i32 1
  store ptr %44, ptr %46, align 8, !tbaa !28
  %47 = load ptr, ptr %4, align 8, !tbaa !13
  %48 = getelementptr inbounds nuw %struct.ec_group_st, ptr %47, i32 0, i32 1
  %49 = load ptr, ptr %48, align 8, !tbaa !28
  %50 = icmp eq ptr %49, null
  br i1 %50, label %51, label %52

51:                                               ; preds = %42
  store i32 0, ptr %3, align 4
  br label %99

52:                                               ; preds = %42
  br label %53

53:                                               ; preds = %52, %37
  %54 = load ptr, ptr %4, align 8, !tbaa !13
  %55 = getelementptr inbounds nuw %struct.ec_group_st, ptr %54, i32 0, i32 1
  %56 = load ptr, ptr %55, align 8, !tbaa !28
  %57 = load ptr, ptr %5, align 8, !tbaa !13
  %58 = getelementptr inbounds nuw %struct.ec_group_st, ptr %57, i32 0, i32 1
  %59 = load ptr, ptr %58, align 8, !tbaa !28
  %60 = call i32 @EC_POINT_copy(ptr noundef %56, ptr noundef %59)
  %61 = icmp ne i32 %60, 0
  br i1 %61, label %63, label %62

62:                                               ; preds = %53
  store i32 0, ptr %3, align 4
  br label %99

63:                                               ; preds = %53
  br label %70

64:                                               ; preds = %27
  %65 = load ptr, ptr %4, align 8, !tbaa !13
  %66 = getelementptr inbounds nuw %struct.ec_group_st, ptr %65, i32 0, i32 1
  %67 = load ptr, ptr %66, align 8, !tbaa !28
  call void @EC_POINT_clear_free(ptr noundef %67)
  %68 = load ptr, ptr %4, align 8, !tbaa !13
  %69 = getelementptr inbounds nuw %struct.ec_group_st, ptr %68, i32 0, i32 1
  store ptr null, ptr %69, align 8, !tbaa !28
  br label %70

70:                                               ; preds = %64, %63
  %71 = load ptr, ptr %4, align 8, !tbaa !13
  %72 = getelementptr inbounds nuw %struct.ec_group_st, ptr %71, i32 0, i32 2
  %73 = load ptr, ptr %5, align 8, !tbaa !13
  %74 = getelementptr inbounds nuw %struct.ec_group_st, ptr %73, i32 0, i32 2
  %75 = call ptr @BN_copy(ptr noundef %72, ptr noundef %74)
  %76 = icmp ne ptr %75, null
  br i1 %76, label %77, label %84

77:                                               ; preds = %70
  %78 = load ptr, ptr %4, align 8, !tbaa !13
  %79 = getelementptr inbounds nuw %struct.ec_group_st, ptr %78, i32 0, i32 3
  %80 = load ptr, ptr %5, align 8, !tbaa !13
  %81 = getelementptr inbounds nuw %struct.ec_group_st, ptr %80, i32 0, i32 3
  %82 = call ptr @BN_copy(ptr noundef %79, ptr noundef %81)
  %83 = icmp ne ptr %82, null
  br i1 %83, label %85, label %84

84:                                               ; preds = %77, %70
  store i32 0, ptr %3, align 4
  br label %99

85:                                               ; preds = %77
  %86 = load ptr, ptr %5, align 8, !tbaa !13
  %87 = getelementptr inbounds nuw %struct.ec_group_st, ptr %86, i32 0, i32 4
  %88 = load i32, ptr %87, align 8, !tbaa !30
  %89 = load ptr, ptr %4, align 8, !tbaa !13
  %90 = getelementptr inbounds nuw %struct.ec_group_st, ptr %89, i32 0, i32 4
  store i32 %88, ptr %90, align 8, !tbaa !30
  %91 = load ptr, ptr %4, align 8, !tbaa !13
  %92 = getelementptr inbounds nuw %struct.ec_group_st, ptr %91, i32 0, i32 0
  %93 = load ptr, ptr %92, align 8, !tbaa !15
  %94 = getelementptr inbounds nuw %struct.ec_method_st, ptr %93, i32 0, i32 2
  %95 = load ptr, ptr %94, align 8, !tbaa !51
  %96 = load ptr, ptr %4, align 8, !tbaa !13
  %97 = load ptr, ptr %5, align 8, !tbaa !13
  %98 = call i32 %95(ptr noundef %96, ptr noundef %97)
  store i32 %98, ptr %3, align 4
  br label %99

99:                                               ; preds = %85, %84, %62, %51, %26, %21, %12
  %100 = load i32, ptr %3, align 4
  ret i32 %100
}