; Function Attrs: nounwind uwtable
define hidden i32 @ec_group_copy(ptr noundef %0, ptr noundef %1) local_unnamed_addr #1 {
  %3 = load ptr, ptr %0, align 8, !tbaa !11
  %4 = getelementptr inbounds nuw i8, ptr %3, i64 16
  %5 = load ptr, ptr %4, align 8, !tbaa !37
  %6 = icmp eq ptr %5, null
  br i1 %6, label %7, label %8

7:                                                ; preds = %2
  tail call void @ERR_put_error(i32 noundef 15, i32 noundef 0, i32 noundef 66, ptr noundef nonnull @.str, i32 noundef 565) #11
  br label %54

8:                                                ; preds = %2
  %9 = load ptr, ptr %1, align 8, !tbaa !11
  %.not = icmp eq ptr %3, %9
  br i1 %.not, label %11, label %10

10:                                               ; preds = %8
  tail call void @ERR_put_error(i32 noundef 15, i32 noundef 0, i32 noundef 106, ptr noundef nonnull @.str, i32 noundef 569) #11
  br label %54

11:                                               ; preds = %8
  %12 = icmp eq ptr %0, %1
  br i1 %12, label %54, label %13

13:                                               ; preds = %11
  %14 = getelementptr inbounds nuw i8, ptr %1, i64 72
  %15 = load ptr, ptr %14, align 8, !tbaa !36
  %16 = getelementptr inbounds nuw i8, ptr %0, i64 72
  store ptr %15, ptr %16, align 8, !tbaa !36
  %17 = getelementptr inbounds nuw i8, ptr %1, i64 8
  %18 = load ptr, ptr %17, align 8, !tbaa !21
  %.not27 = icmp eq ptr %18, null
  %19 = getelementptr inbounds nuw i8, ptr %0, i64 8
  %20 = load ptr, ptr %19, align 8, !tbaa !21
  %.not.i33 = icmp eq ptr %20, null
  br i1 %.not27, label %37, label %21

21:                                               ; preds = %13
  br i1 %.not.i33, label %22, label %29

22:                                               ; preds = %21
  %23 = tail call noalias dereferenceable_or_null(80) ptr @malloc(i64 noundef 80) #12
  %24 = icmp eq ptr %23, null
  br i1 %24, label %25, label %26

25:                                               ; preds = %22
  tail call void @ERR_put_error(i32 noundef 15, i32 noundef 0, i32 noundef 65, ptr noundef nonnull @.str, i32 noundef 686) #11
  br label %EC_POINT_new.exit.thread

26:                                               ; preds = %22
  store ptr %3, ptr %23, align 8, !tbaa !23
  %27 = tail call i32 @ec_GFp_simple_point_init(ptr noundef nonnull %23) #11
  %.not.i = icmp eq i32 %27, 0
  br i1 %.not.i, label %28, label %EC_POINT_new.exit

28:                                               ; preds = %26
  tail call void @free(ptr noundef nonnull %23) #11
  br label %EC_POINT_new.exit.thread

EC_POINT_new.exit.thread:                         ; preds = %25, %28
  store ptr null, ptr %19, align 8, !tbaa !21
  br label %54

EC_POINT_new.exit:                                ; preds = %26
  store ptr %23, ptr %19, align 8, !tbaa !21
  %.pre = load ptr, ptr %17, align 8, !tbaa !21
  br label %29

29:                                               ; preds = %EC_POINT_new.exit, %21
  %30 = phi ptr [ %.pre, %EC_POINT_new.exit ], [ %18, %21 ]
  %31 = phi ptr [ %23, %EC_POINT_new.exit ], [ %20, %21 ]
  %32 = load ptr, ptr %31, align 8, !tbaa !23
  %33 = load ptr, ptr %30, align 8, !tbaa !23
  %.not.i31 = icmp eq ptr %32, %33
  br i1 %.not.i31, label %34, label %EC_POINT_copy.exit.thread

EC_POINT_copy.exit.thread:                        ; preds = %29
  tail call void @ERR_put_error(i32 noundef 15, i32 noundef 0, i32 noundef 106, ptr noundef nonnull @.str, i32 noundef 723) #11
  br label %54

34:                                               ; preds = %29
  %35 = icmp eq ptr %31, %30
  br i1 %35, label %EC_POINT_copy.exit.thread37, label %EC_POINT_copy.exit

EC_POINT_copy.exit:                               ; preds = %34
  %36 = tail call i32 @ec_GFp_simple_point_copy(ptr noundef nonnull %31, ptr noundef nonnull %30) #11
  %.not28 = icmp eq i32 %36, 0
  br i1 %.not28, label %54, label %EC_POINT_copy.exit.thread37

37:                                               ; preds = %13
  br i1 %.not.i33, label %EC_POINT_clear_free.exit, label %38

38:                                               ; preds = %37
  tail call void @ec_GFp_simple_point_clear_finish(ptr noundef nonnull %20) #11
  tail call void @OPENSSL_cleanse(ptr noundef nonnull %20, i64 noundef 80) #11
  tail call void @free(ptr noundef nonnull %20) #11
  br label %EC_POINT_clear_free.exit

EC_POINT_clear_free.exit:                         ; preds = %37, %38
  store ptr null, ptr %19, align 8, !tbaa !21
  br label %EC_POINT_copy.exit.thread37

EC_POINT_copy.exit.thread37:                      ; preds = %34, %EC_POINT_copy.exit, %EC_POINT_clear_free.exit
  %39 = getelementptr inbounds nuw i8, ptr %0, i64 16
  %40 = getelementptr inbounds nuw i8, ptr %1, i64 16
  %41 = tail call ptr @BN_copy(ptr noundef nonnull %39, ptr noundef nonnull %40) #11
  %.not29 = icmp eq ptr %41, null
  br i1 %.not29, label %54, label %42

42:                                               ; preds = %EC_POINT_copy.exit.thread37
  %43 = getelementptr inbounds nuw i8, ptr %0, i64 40
  %44 = getelementptr inbounds nuw i8, ptr %1, i64 40
  %45 = tail call ptr @BN_copy(ptr noundef nonnull %43, ptr noundef nonnull %44) #11
  %.not30 = icmp eq ptr %45, null
  br i1 %.not30, label %54, label %46

46:                                               ; preds = %42
  %47 = getelementptr inbounds nuw i8, ptr %1, i64 64
  %48 = load i32, ptr %47, align 8, !tbaa !22
  %49 = getelementptr inbounds nuw i8, ptr %0, i64 64
  store i32 %48, ptr %49, align 8, !tbaa !22
  %50 = load ptr, ptr %0, align 8, !tbaa !11
  %51 = getelementptr inbounds nuw i8, ptr %50, i64 16
  %52 = load ptr, ptr %51, align 8, !tbaa !37
  %53 = tail call i32 %52(ptr noundef nonnull %0, ptr noundef nonnull %1) #11
  br label %54

54:                                               ; preds = %EC_POINT_copy.exit.thread, %EC_POINT_new.exit.thread, %EC_POINT_copy.exit.thread37, %42, %EC_POINT_copy.exit, %11, %46, %10, %7
  %.0 = phi i32 [ 0, %7 ], [ 0, %10 ], [ %53, %46 ], [ 1, %11 ], [ 0, %EC_POINT_copy.exit ], [ 0, %42 ], [ 0, %EC_POINT_copy.exit.thread37 ], [ 0, %EC_POINT_new.exit.thread ], [ 0, %EC_POINT_copy.exit.thread ]
  ret i32 %.0
}